target datalayout = "e-m:e-p270:32:32-p271:32:32-p272:64:64-i64:64-i128:128-f80:128-n8:16:32:64-S128"
target triple = "x86_64-pc-linux-gnu"

%"class.absl::Condition" = type { [16 x i8], ptr, ptr }

; Function Attrs: inlinehint mustprogress nounwind uwtable
define linkonce_odr dso_local void @_ZN4absl9Condition13StoreCallbackIPFbPvEEEvT_(ptr noundef nonnull align 8 dereferenceable(32) %0, ptr noundef %1) #1 comdat align 2 {
  %3 = alloca ptr, align 8
  %4 = alloca ptr, align 8
  store ptr %0, ptr %3, align 8, !tbaa !105
  store ptr %1, ptr %4, align 8, !tbaa !4
  %5 = load ptr, ptr %3, align 8
  %6 = getelementptr inbounds nuw %"class.absl::Condition", ptr %5, i32 0, i32 0
  %7 = getelementptr inbounds [16 x i8], ptr %6, i64 0, i64 0
  call void @llvm.memcpy.p0.p0.i64(ptr align 8 %7, ptr align 8 %4, i64 8, i1 false)
  ret void
}

; Function Attrs: mustprogress uwtable
define dso_local void @_ZN4absl9ConditionC2EPFbPvES1_(ptr noundef nonnull align 8 dereferenceable(32) %0, ptr noundef %1, ptr noundef %2) unnamed_addr #0 align 2 {
  %4 = alloca ptr, align 8
  %5 = alloca ptr, align 8
  %6 = alloca ptr, align 8
  store ptr %0, ptr %4, align 8, !tbaa !105
  store ptr %1, ptr %5, align 8, !tbaa !4
  store ptr %2, ptr %6, align 8, !tbaa !4
  %7 = load ptr, ptr %4, align 8
  %8 = getelementptr inbounds nuw %"class.absl::Condition", ptr %7, i32 0, i32 0
  store i8 0, ptr %8, align 1, !tbaa !59
  %9 = getelementptr inbounds i8, ptr %8, i64 1
  %10 = getelementptr inbounds i8, ptr %8, i64 16
  br label %11

11:                                               ; preds = %11, %3
  %12 = phi ptr [ %9, %3 ], [ %13, %11 ]
  store i8 0, ptr %12, align 1, !tbaa !59
  %13 = getelementptr inbounds i8, ptr %12, i64 1
  %14 = icmp eq ptr %13, %10
  br i1 %14, label %15, label %11

15:                                               ; preds = %11
  %16 = getelementptr inbounds nuw %"class.absl::Condition", ptr %7, i32 0, i32 1
  store ptr @_ZN4absl9Condition19CallVoidPtrFunctionEPKS0_, ptr %16, align 8, !tbaa !112
  %17 = getelementptr inbounds nuw %"class.absl::Condition", ptr %7, i32 0, i32 2
  %18 = load ptr, ptr %6, align 8, !tbaa !4
  store ptr %18, ptr %17, align 8, !tbaa !170
  %19 = load ptr, ptr %5, align 8, !tbaa !4
  call void @_ZN4absl9Condition13StoreCallbackIPFbPvEEEvT_(ptr noundef nonnull align 8 dereferenceable(32) %7, ptr noundef %19)
  ret void
}