; Function Attrs: mustprogress nofree norecurse nosync nounwind willreturn memory(argmem: write) uwtable
define dso_local void @_ZN4absl9ConditionC2EPFbPvES1_(ptr noundef nonnull writeonly align 8 captures(none) dereferenceable(32) initializes((0, 32)) %0, ptr noundef %1, ptr noundef %2) unnamed_addr #14 align 2 {
  %4 = getelementptr inbounds nuw i8, ptr %0, i64 16
  %5 = getelementptr inbounds nuw i8, ptr %0, i64 8
  store i64 0, ptr %5, align 8
  store ptr @_ZN4absl9Condition19CallVoidPtrFunctionEPKS0_, ptr %4, align 8, !tbaa !67
  %6 = getelementptr inbounds nuw i8, ptr %0, i64 24
  store ptr %2, ptr %6, align 8, !tbaa !69
  store ptr %1, ptr %0, align 8
  ret void
}